; Function Attrs: nofree norecurse nosync nounwind memory(argmem: readwrite) uwtable
define hidden void @av1_iidentity4_c(ptr nocapture noundef readonly %0, ptr nocapture noundef writeonly %1, i8 noundef signext %2, ptr nocapture noundef readnone %3) local_unnamed_addr #3 {
  br label %5

5:                                                ; preds = %4, %5
  %indvars.iv = phi i64 [ 0, %4 ], [ %indvars.iv.next, %5 ]
  %6 = getelementptr inbounds i32, ptr %0, i64 %indvars.iv
  %7 = load i32, ptr %6, align 4
  %8 = sext i32 %7 to i64
  %9 = mul nsw i64 %8, 5793
  %10 = add nsw i64 %9, 2048
  %11 = lshr i64 %10, 12
  %12 = trunc i64 %11 to i32
  %13 = getelementptr inbounds i32, ptr %1, i64 %indvars.iv
  store i32 %12, ptr %13, align 4
  %indvars.iv.next = add nuw nsw i64 %indvars.iv, 1
  %exitcond.not = icmp eq i64 %indvars.iv.next, 4
  br i1 %exitcond.not, label %14, label %5, !llvm.loop !4

14:                                               ; preds = %5
  ret void
}